; Function Attrs: nounwind uwtable
define hidden void @zim_DOMAttr___construct(ptr noundef readonly captures(none) %0, ptr noundef readnone captures(none) %1) local_unnamed_addr #0 {
  %3 = alloca ptr, align 8
  %4 = alloca ptr, align 8
  %5 = alloca i64, align 8
  %6 = alloca i64, align 8
  call void @llvm.lifetime.start.p0(i64 8, ptr nonnull %3) #8
  call void @llvm.lifetime.start.p0(i64 8, ptr nonnull %4) #8
  store ptr null, ptr %4, align 8, !tbaa !4
  call void @llvm.lifetime.start.p0(i64 8, ptr nonnull %5) #8
  call void @llvm.lifetime.start.p0(i64 8, ptr nonnull %6) #8
  %7 = getelementptr inbounds nuw i8, ptr %0, i64 44
  %8 = load i32, ptr %7, align 4, !tbaa !9
  %9 = call i32 (i32, ptr, ...) @zend_parse_parameters(i32 noundef %8, ptr noundef nonnull @.str, ptr noundef nonnull %3, ptr noundef nonnull %5, ptr noundef nonnull %4, ptr noundef nonnull %6) #8
  %10 = icmp eq i32 %9, -1
  br i1 %10, label %11, label %14

11:                                               ; preds = %2
  %12 = load ptr, ptr getelementptr inbounds nuw (i8, ptr @executor_globals, i64 960), align 8, !tbaa !10
  %13 = icmp ne ptr %12, null
  call void @llvm.assume(i1 %13)
  br label %35

14:                                               ; preds = %2
  %15 = getelementptr inbounds nuw i8, ptr %0, i64 32
  %16 = load ptr, ptr %15, align 8, !tbaa !9
  %17 = getelementptr inbounds i8, ptr %16, i64 -24
  %18 = load ptr, ptr %3, align 8, !tbaa !4
  %19 = call i32 @xmlValidateName(ptr noundef %18, i32 noundef 0) #8
  %.not = icmp eq i32 %19, 0
  br i1 %.not, label %23, label %20

20:                                               ; preds = %14
  call void @php_dom_throw_error(i32 noundef 5, i1 noundef zeroext true) #8
  %21 = load ptr, ptr getelementptr inbounds nuw (i8, ptr @executor_globals, i64 960), align 8, !tbaa !10
  %22 = icmp ne ptr %21, null
  call void @llvm.assume(i1 %22)
  br label %35

23:                                               ; preds = %14
  %24 = load ptr, ptr %3, align 8, !tbaa !4
  %25 = load ptr, ptr %4, align 8, !tbaa !4
  %26 = call ptr @xmlNewProp(ptr noundef null, ptr noundef %24, ptr noundef %25) #8
  %.not9 = icmp eq ptr %26, null
  br i1 %.not9, label %27, label %30

27:                                               ; preds = %23
  call void @php_dom_throw_error(i32 noundef 11, i1 noundef zeroext true) #8
  %28 = load ptr, ptr getelementptr inbounds nuw (i8, ptr @executor_globals, i64 960), align 8, !tbaa !10
  %29 = icmp ne ptr %28, null
  call void @llvm.assume(i1 %29)
  br label %35

30:                                               ; preds = %23
  %31 = call ptr @dom_object_get_node(ptr noundef nonnull %17) #8
  %.not10 = icmp eq ptr %31, null
  br i1 %.not10, label %33, label %32

32:                                               ; preds = %30
  call void @php_libxml_node_decrement_resource(ptr noundef nonnull %17) #8
  br label %33

33:                                               ; preds = %32, %30
  %34 = call i32 @php_libxml_increment_node_ptr(ptr noundef nonnull %17, ptr noundef nonnull %26, ptr noundef nonnull %17) #8
  br label %35

35:                                               ; preds = %33, %27, %20, %11
  call void @llvm.lifetime.end.p0(i64 8, ptr nonnull %6) #8
  call void @llvm.lifetime.end.p0(i64 8, ptr nonnull %5) #8
  call void @llvm.lifetime.end.p0(i64 8, ptr nonnull %4) #8
  call void @llvm.lifetime.end.p0(i64 8, ptr nonnull %3) #8
  ret void
}